target datalayout = "e-m:e-p270:32:32-p271:32:32-p272:64:64-i64:64-i128:128-f80:128-n8:16:32:64-S128"
target triple = "x86_64-pc-linux-gnu"

%struct.AVRational = type { i32, i32 }
%struct.AVCodecContext = type { ptr, i32, i32, ptr, i32, i32, ptr, ptr, ptr, i64, i32, i32, ptr, i32, %struct.AVRational, %struct.AVRational, %struct.AVRational, i32, i32, i32, i32, i32, %struct.AVRational, i32, i32, i32, i32, i32, i32, i32, i32, i32, i32, i32, ptr, ptr, i32, float, float, float, float, float, float, float, float, float, i32, i32, i32, i32, i32, i32, i32, i32, i32, i32, i32, i32, ptr, ptr, ptr, i32, i32, i32, i32, i32, i32, i32, i32, i32, i32, %struct.AVChannelLayout, i32, i32, i32, i32, i32, i32, i32, i32, ptr, i32, i32, i32, float, float, i32, i32, i32, i32, i32, ptr, i64, i64, float, float, i32, i32, ptr, ptr, i32, i32, i32, i32, i32, ptr, ptr, ptr, ptr, i32, i32, [8 x i64], i32, i32, i32, i32, i32, i32, i32, ptr, ptr, i32, i32, i32, i32, i32, i32, i32, i32, i32, i32, ptr, ptr, i32, i32, ptr, ptr, ptr, ptr, i32, i32, i64, i32, i32, i64, ptr, i64, ptr, i32, ptr, i32 }
%struct.AVChannelLayout = type { i32, i32, %union.anon, ptr }
%union.anon = type { i64 }
%struct.TwinVQContext = type { ptr, ptr, [3 x ptr], [3 x ptr], ptr, i32, [2 x [20 x float]], [3 x [2 x [40 x float]]], [4 x [4096 x i16]], [4 x [2 x i8]], [4 x i8], [2 x [4 x [2 x i8]]], [4 x i32], [4 x i32], ptr, ptr, ptr, [2 x i32], i32, [3 x ptr], ptr, i32, i32, i32, [2 x %struct.TwinVQFrameData], i32, ptr, ptr, ptr }
%struct.TwinVQFrameData = type { i32, i32, [1024 x i8], [60 x i8], [2 x i8], [32 x i8], [2 x [16 x [4 x i8]]], [2 x [16 x i8]], [2 x i8], [2 x [4 x i8]], [2 x i8], [2 x i32], [2 x i32] }

; Function Attrs: cold nounwind optsize uwtable
define hidden i32 @ff_twinvq_decode_close(ptr noundef %0) #3 {
  %2 = alloca ptr, align 8
  %3 = alloca ptr, align 8
  %4 = alloca i32, align 4
  store ptr %0, ptr %2, align 8, !tbaa !4
  call void @llvm.lifetime.start.p0(i64 8, ptr %3) #8
  %5 = load ptr, ptr %2, align 8, !tbaa !4
  %6 = getelementptr inbounds nuw %struct.AVCodecContext, ptr %5, i32 0, i32 6
  %7 = load ptr, ptr %6, align 8, !tbaa !26
  store ptr %7, ptr %3, align 8, !tbaa !39
  call void @llvm.lifetime.start.p0(i64 4, ptr %4) #8
  store i32 0, ptr %4, align 4, !tbaa !25
  br label %8

8:                                                ; preds = %22, %1
  %9 = load i32, ptr %4, align 4, !tbaa !25
  %10 = icmp slt i32 %9, 3
  br i1 %10, label %11, label %25

11:                                               ; preds = %8
  %12 = load ptr, ptr %3, align 8, !tbaa !39
  %13 = getelementptr inbounds nuw %struct.TwinVQContext, ptr %12, i32 0, i32 2
  %14 = load i32, ptr %4, align 4, !tbaa !25
  %15 = sext i32 %14 to i64
  %16 = getelementptr inbounds [3 x ptr], ptr %13, i64 0, i64 %15
  call void @av_tx_uninit(ptr noundef %16)
  %17 = load ptr, ptr %3, align 8, !tbaa !39
  %18 = getelementptr inbounds nuw %struct.TwinVQContext, ptr %17, i32 0, i32 19
  %19 = load i32, ptr %4, align 4, !tbaa !25
  %20 = sext i32 %19 to i64
  %21 = getelementptr inbounds [3 x ptr], ptr %18, i64 0, i64 %20
  call void @av_freep(ptr noundef %21)
  br label %22

22:                                               ; preds = %11
  %23 = load i32, ptr %4, align 4, !tbaa !25
  %24 = add nsw i32 %23, 1
  store i32 %24, ptr %4, align 4, !tbaa !25
  br label %8, !llvm.loop !96

25:                                               ; preds = %8
  %26 = load ptr, ptr %3, align 8, !tbaa !39
  %27 = getelementptr inbounds nuw %struct.TwinVQContext, ptr %26, i32 0, i32 15
  call void @av_freep(ptr noundef %27)
  %28 = load ptr, ptr %3, align 8, !tbaa !39
  %29 = getelementptr inbounds nuw %struct.TwinVQContext, ptr %28, i32 0, i32 14
  call void @av_freep(ptr noundef %29)
  %30 = load ptr, ptr %3, align 8, !tbaa !39
  %31 = getelementptr inbounds nuw %struct.TwinVQContext, ptr %30, i32 0, i32 16
  call void @av_freep(ptr noundef %31)
  %32 = load ptr, ptr %3, align 8, !tbaa !39
  %33 = getelementptr inbounds nuw %struct.TwinVQContext, ptr %32, i32 0, i32 20
  call void @av_freep(ptr noundef %33)
  %34 = load ptr, ptr %3, align 8, !tbaa !39
  %35 = getelementptr inbounds nuw %struct.TwinVQContext, ptr %34, i32 0, i32 1
  call void @av_freep(ptr noundef %35)
  call void @llvm.lifetime.end.p0(i64 4, ptr %4) #8
  call void @llvm.lifetime.end.p0(i64 8, ptr %3) #8
  ret i32 0
}