; Function Attrs: cold nounwind optsize uwtable
define hidden noundef i32 @ff_twinvq_decode_close(ptr noundef readonly captures(none) %0) local_unnamed_addr #3 {
  %2 = getelementptr inbounds nuw i8, ptr %0, i64 32
  %3 = load ptr, ptr %2, align 8, !tbaa !16
  %4 = getelementptr inbounds nuw i8, ptr %3, i64 16
  %5 = getelementptr inbounds nuw i8, ptr %3, i64 34064
  br label %6

6:                                                ; preds = %1, %6
  %indvars.iv = phi i64 [ 0, %1 ], [ %indvars.iv.next, %6 ]
  %7 = getelementptr inbounds nuw [3 x ptr], ptr %4, i64 0, i64 %indvars.iv
  tail call void @av_tx_uninit(ptr noundef nonnull %7) #10
  %8 = getelementptr inbounds nuw [3 x ptr], ptr %5, i64 0, i64 %indvars.iv
  tail call void @av_freep(ptr noundef nonnull %8) #10
  %indvars.iv.next = add nuw nsw i64 %indvars.iv, 1
  %exitcond.not = icmp eq i64 %indvars.iv.next, 3
  br i1 %exitcond.not, label %9, label %6, !llvm.loop !107

9:                                                ; preds = %6
  %10 = getelementptr inbounds nuw i8, ptr %3, i64 34032
  tail call void @av_freep(ptr noundef nonnull %10) #10
  %11 = getelementptr inbounds nuw i8, ptr %3, i64 34024
  tail call void @av_freep(ptr noundef nonnull %11) #10
  %12 = getelementptr inbounds nuw i8, ptr %3, i64 34040
  tail call void @av_freep(ptr noundef nonnull %12) #10
  %13 = getelementptr inbounds nuw i8, ptr %3, i64 34088
  tail call void @av_freep(ptr noundef nonnull %13) #10
  %14 = getelementptr inbounds nuw i8, ptr %3, i64 8
  tail call void @av_freep(ptr noundef nonnull %14) #10
  ret i32 0
}